; Function Attrs: mustprogress nounwind uwtable
define hidden i32 @_ZN6hermes2vm8JSObject24getOwnComputedDescriptorENS0_6HandleIS1_EERNS0_7RuntimeENS2_INS0_11HermesValueEEERNS0_13MutableHandleINS0_8SymbolIDEEERNS0_26ComputedPropertyDescriptorE(ptr %selfHandle.coerce, ptr noundef nonnull align 8 dereferenceable(9832) %runtime, ptr %nameValHandle.coerce, ptr noundef nonnull readnone align 8 captures(none) dereferenceable(8) %tmpSymbolStorage, ptr noundef nonnull align 4 dereferenceable(8) %desc) local_unnamed_addr #1 align 2 {
entry:
  %call = tail call ptr @_ZN6hermes2vm21toPropertyKeyIfObjectERNS0_7RuntimeENS0_6HandleINS0_11HermesValueEEE(ptr noundef nonnull align 8 dereferenceable(9832) %runtime, ptr %nameValHandle.coerce)
  %cmp.i.i.not = icmp eq ptr %call, inttoptr (i64 -1 to ptr)
  br i1 %cmp.i.i.not, label %return, label %if.end

if.end:                                           ; preds = %entry
  %call17 = tail call i32 @_ZN6hermes2vm8JSObject33getOwnComputedPrimitiveDescriptorENS0_6HandleIS1_EERNS0_7RuntimeENS2_INS0_11HermesValueEEENS1_11IgnoreProxyERNS0_13MutableHandleINS0_8SymbolIDEEERNS0_26ComputedPropertyDescriptorE(ptr %selfHandle.coerce, ptr noundef nonnull align 8 dereferenceable(9832) %runtime, ptr %call, i32 noundef 0, ptr noundef nonnull align 8 dereferenceable(8) %tmpSymbolStorage, ptr noundef nonnull align 4 dereferenceable(8) %desc)
  br label %return

return:                                           ; preds = %entry, %if.end
  %retval.sroa.0.0.insert.insert = phi i32 [ %call17, %if.end ], [ 0, %entry ]
  ret i32 %retval.sroa.0.0.insert.insert
}